; Function Attrs: nounwind uwtable
define internal fastcc void @_jumbleOnConflictExpr(ptr noundef %0, ptr noundef nonnull readonly captures(none) %1) unnamed_addr #0 {
  %3 = getelementptr inbounds nuw i8, ptr %1, i64 4
  %4 = load ptr, ptr %0, align 8
  %5 = getelementptr inbounds nuw i8, ptr %0, i64 8
  %6 = load i64, ptr %5, align 8
  br label %.lr.ph.i

.lr.ph.i:                                         ; preds = %10, %2
  %.026.i = phi ptr [ %15, %10 ], [ %3, %2 ]
  %.02125.i = phi i64 [ %16, %10 ], [ 4, %2 ]
  %.02224.i = phi i64 [ %14, %10 ], [ %6, %2 ]
  %7 = icmp ugt i64 %.02224.i, 1023
  br i1 %7, label %8, label %10

8:                                                ; preds = %.lr.ph.i
  %9 = tail call i64 @hash_bytes_extended(ptr noundef %4, i32 noundef 1024, i64 noundef 0) #9
  store i64 %9, ptr %4, align 1
  br label %10

10:                                               ; preds = %8, %.lr.ph.i
  %.1.i = phi i64 [ 8, %8 ], [ %.02224.i, %.lr.ph.i ]
  %11 = sub nuw nsw i64 1024, %.1.i
  %12 = tail call i64 @llvm.umin.i64(i64 %.02125.i, i64 %11)
  %13 = getelementptr inbounds nuw i8, ptr %4, i64 %.1.i
  tail call void @llvm.memcpy.p0.p0.i64(ptr noundef nonnull align 1 dereferenceable(1) %13, ptr noundef nonnull align 1 dereferenceable(1) %.026.i, i64 %12, i1 false)
  %14 = add nuw nsw i64 %12, %.1.i
  %15 = getelementptr inbounds nuw i8, ptr %.026.i, i64 %12
  %16 = sub i64 %.02125.i, %12
  %.not.i = icmp eq i64 %16, 0
  br i1 %.not.i, label %AppendJumble.exit, label %.lr.ph.i, !llvm.loop !7

AppendJumble.exit:                                ; preds = %10
  store i64 %14, ptr %5, align 8
  %17 = getelementptr inbounds nuw i8, ptr %1, i64 8
  %18 = load ptr, ptr %17, align 8
  tail call fastcc void @_jumbleNode(ptr noundef nonnull %0, ptr noundef %18)
  %19 = getelementptr inbounds nuw i8, ptr %1, i64 16
  %20 = load ptr, ptr %19, align 8
  tail call fastcc void @_jumbleNode(ptr noundef nonnull %0, ptr noundef %20)
  %21 = getelementptr inbounds nuw i8, ptr %1, i64 24
  %22 = load ptr, ptr %0, align 8
  %23 = load i64, ptr %5, align 8
  br label %.lr.ph.i17

.lr.ph.i17:                                       ; preds = %27, %AppendJumble.exit
  %.026.i18 = phi ptr [ %32, %27 ], [ %21, %AppendJumble.exit ]
  %.02125.i19 = phi i64 [ %33, %27 ], [ 4, %AppendJumble.exit ]
  %.02224.i20 = phi i64 [ %31, %27 ], [ %23, %AppendJumble.exit ]
  %24 = icmp ugt i64 %.02224.i20, 1023
  br i1 %24, label %25, label %27

25:                                               ; preds = %.lr.ph.i17
  %26 = tail call i64 @hash_bytes_extended(ptr noundef %22, i32 noundef 1024, i64 noundef 0) #9
  store i64 %26, ptr %22, align 1
  br label %27

27:                                               ; preds = %25, %.lr.ph.i17
  %.1.i21 = phi i64 [ 8, %25 ], [ %.02224.i20, %.lr.ph.i17 ]
  %28 = sub nuw nsw i64 1024, %.1.i21
  %29 = tail call i64 @llvm.umin.i64(i64 %.02125.i19, i64 %28)
  %30 = getelementptr inbounds nuw i8, ptr %22, i64 %.1.i21
  tail call void @llvm.memcpy.p0.p0.i64(ptr noundef nonnull align 1 dereferenceable(1) %30, ptr noundef nonnull align 1 dereferenceable(1) %.026.i18, i64 %29, i1 false)
  %31 = add nuw nsw i64 %29, %.1.i21
  %32 = getelementptr inbounds nuw i8, ptr %.026.i18, i64 %29
  %33 = sub i64 %.02125.i19, %29
  %.not.i22 = icmp eq i64 %33, 0
  br i1 %.not.i22, label %AppendJumble.exit23, label %.lr.ph.i17, !llvm.loop !7

AppendJumble.exit23:                              ; preds = %27
  store i64 %31, ptr %5, align 8
  %34 = getelementptr inbounds nuw i8, ptr %1, i64 32
  %35 = load ptr, ptr %34, align 8
  tail call fastcc void @_jumbleNode(ptr noundef nonnull %0, ptr noundef %35)
  %36 = getelementptr inbounds nuw i8, ptr %1, i64 40
  %37 = load ptr, ptr %36, align 8
  tail call fastcc void @_jumbleNode(ptr noundef nonnull %0, ptr noundef %37)
  %38 = getelementptr inbounds nuw i8, ptr %1, i64 48
  %39 = load ptr, ptr %0, align 8
  %40 = load i64, ptr %5, align 8
  br label %.lr.ph.i24

.lr.ph.i24:                                       ; preds = %44, %AppendJumble.exit23
  %.026.i25 = phi ptr [ %49, %44 ], [ %38, %AppendJumble.exit23 ]
  %.02125.i26 = phi i64 [ %50, %44 ], [ 4, %AppendJumble.exit23 ]
  %.02224.i27 = phi i64 [ %48, %44 ], [ %40, %AppendJumble.exit23 ]
  %41 = icmp ugt i64 %.02224.i27, 1023
  br i1 %41, label %42, label %44

42:                                               ; preds = %.lr.ph.i24
  %43 = tail call i64 @hash_bytes_extended(ptr noundef %39, i32 noundef 1024, i64 noundef 0) #9
  store i64 %43, ptr %39, align 1
  br label %44

44:                                               ; preds = %42, %.lr.ph.i24
  %.1.i28 = phi i64 [ 8, %42 ], [ %.02224.i27, %.lr.ph.i24 ]
  %45 = sub nuw nsw i64 1024, %.1.i28
  %46 = tail call i64 @llvm.umin.i64(i64 %.02125.i26, i64 %45)
  %47 = getelementptr inbounds nuw i8, ptr %39, i64 %.1.i28
  tail call void @llvm.memcpy.p0.p0.i64(ptr noundef nonnull align 1 dereferenceable(1) %47, ptr noundef nonnull align 1 dereferenceable(1) %.026.i25, i64 %46, i1 false)
  %48 = add nuw nsw i64 %46, %.1.i28
  %49 = getelementptr inbounds nuw i8, ptr %.026.i25, i64 %46
  %50 = sub i64 %.02125.i26, %46
  %.not.i29 = icmp eq i64 %50, 0
  br i1 %.not.i29, label %AppendJumble.exit30, label %.lr.ph.i24, !llvm.loop !7

AppendJumble.exit30:                              ; preds = %44
  store i64 %48, ptr %5, align 8
  %51 = getelementptr inbounds nuw i8, ptr %1, i64 56
  %52 = load ptr, ptr %51, align 8
  tail call fastcc void @_jumbleNode(ptr noundef nonnull %0, ptr noundef %52)
  ret void
}